; Function Attrs: nounwind uwtable
define internal i32 @test_MSG_protect_with_certificate_and_key() #0 {
  %1 = tail call fastcc ptr @set_up(ptr noundef nonnull @.str.48)
  %2 = icmp eq ptr %1, null
  br i1 %2, label %45, label %3

3:                                                ; preds = %0
  %4 = getelementptr inbounds nuw i8, ptr %1, i64 88
  store i32 1, ptr %4, align 8, !tbaa !43
  %5 = load ptr, ptr @ir_unprotected, align 8, !tbaa !9
  %6 = tail call ptr @OSSL_CMP_MSG_dup(ptr noundef %5) #5
  %7 = getelementptr inbounds nuw i8, ptr %1, i64 16
  store ptr %6, ptr %7, align 8, !tbaa !19
  %8 = tail call i32 @test_ptr(ptr noundef nonnull @.str.14, i32 noundef 243, ptr noundef nonnull @.str.75, ptr noundef %6) #5
  %.not = icmp eq i32 %8, 0
  br i1 %.not, label %.thread, label %9

9:                                                ; preds = %3
  %10 = getelementptr inbounds nuw i8, ptr %1, i64 8
  %11 = load ptr, ptr %10, align 8, !tbaa !36
  %12 = tail call i32 @OSSL_CMP_CTX_set_option(ptr noundef %11, i32 noundef 30, i32 noundef 0) #5
  %13 = icmp ne i32 %12, 0
  %14 = zext i1 %13 to i32
  %15 = tail call i32 @test_true(ptr noundef nonnull @.str.14, i32 noundef 244, ptr noundef nonnull @.str.76, i32 noundef %14) #5
  %.not14 = icmp eq i32 %15, 0
  br i1 %.not14, label %.thread, label %16

16:                                               ; preds = %9
  %17 = load ptr, ptr %10, align 8, !tbaa !36
  %18 = load ptr, ptr @server_key, align 8, !tbaa !4
  %19 = tail call i32 @OSSL_CMP_CTX_set1_pkey(ptr noundef %17, ptr noundef %18) #5
  %20 = icmp ne i32 %19, 0
  %21 = zext i1 %20 to i32
  %22 = tail call i32 @test_true(ptr noundef nonnull @.str.14, i32 noundef 245, ptr noundef nonnull @.str.81, i32 noundef %21) #5
  %.not15 = icmp eq i32 %22, 0
  br i1 %.not15, label %.thread, label %23

23:                                               ; preds = %16
  %24 = load ptr, ptr %10, align 8, !tbaa !36
  %25 = load ptr, ptr @server_cert, align 8, !tbaa !11
  %26 = tail call i32 @OSSL_CMP_CTX_set1_cert(ptr noundef %24, ptr noundef %25) #5
  %27 = icmp ne i32 %26, 0
  %28 = zext i1 %27 to i32
  %29 = tail call i32 @test_true(ptr noundef nonnull @.str.14, i32 noundef 247, ptr noundef nonnull @.str.82, i32 noundef %28) #5
  %.not16 = icmp eq i32 %29, 0
  br i1 %.not16, label %.thread, label %tear_down.exit19

.thread:                                          ; preds = %3, %9, %16, %23
  %30 = getelementptr inbounds nuw i8, ptr %1, i64 8
  br label %.sink.split

tear_down.exit19:                                 ; preds = %23
  %31 = load i32, ptr %4, align 8, !tbaa !43
  %32 = load ptr, ptr %10, align 8, !tbaa !36
  %33 = load ptr, ptr %7, align 8, !tbaa !19
  %34 = tail call i32 @ossl_cmp_msg_protect(ptr noundef %32, ptr noundef %33) #5
  %35 = tail call i32 @test_int_eq(ptr noundef nonnull @.str.14, i32 noundef 193, ptr noundef nonnull @.str.79, ptr noundef nonnull @.str.80, i32 noundef %31, i32 noundef %34) #5
  br label %.sink.split

.sink.split:                                      ; preds = %tear_down.exit19, %.thread
  %.sink.in = phi ptr [ %30, %.thread ], [ %10, %tear_down.exit19 ]
  %.012.ph = phi i32 [ 0, %.thread ], [ %35, %tear_down.exit19 ]
  %.sink = load ptr, ptr %.sink.in, align 8, !tbaa !36
  tail call void @OSSL_CMP_CTX_free(ptr noundef %.sink) #5
  %36 = load ptr, ptr %7, align 8, !tbaa !19
  tail call void @OSSL_CMP_MSG_free(ptr noundef %36) #5
  %37 = getelementptr inbounds nuw i8, ptr %1, i64 24
  %38 = load ptr, ptr %37, align 8, !tbaa !37
  tail call void @OSSL_CMP_PKISI_free(ptr noundef %38) #5
  %39 = getelementptr inbounds nuw i8, ptr %1, i64 40
  %40 = load ptr, ptr %39, align 8, !tbaa !38
  tail call void @CRYPTO_free(ptr noundef %40, ptr noundef nonnull @.str.14, i32 noundef 46) #5
  %41 = getelementptr inbounds nuw i8, ptr %1, i64 64
  %42 = load ptr, ptr %41, align 8, !tbaa !39
  tail call void @OPENSSL_sk_free(ptr noundef %42) #5
  %43 = getelementptr inbounds nuw i8, ptr %1, i64 72
  %44 = load ptr, ptr %43, align 8, !tbaa !40
  tail call void @OPENSSL_sk_free(ptr noundef %44) #5
  tail call void @CRYPTO_free(ptr noundef nonnull %1, ptr noundef nonnull @.str.14, i32 noundef 50) #5
  br label %45

45:                                               ; preds = %.sink.split, %0
  %.012 = phi i32 [ 0, %0 ], [ %.012.ph, %.sink.split ]
  ret i32 %.012
}